target datalayout = "e-m:e-p270:32:32-p271:32:32-p272:64:64-i64:64-i128:128-f80:128-n8:16:32:64-S128"
target triple = "x86_64-pc-linux-gnu"

@hf_nas_eps_spare_bits = internal global i32 0, align 4
@hf_nas_eps_esm_pkmf_address_type = internal global i32 0, align 4
@hf_nas_eps_esm_pkmf_ipv4 = internal global i32 0, align 4
@hf_nas_eps_esm_pkmf_ipv6 = internal global i32 0, align 4

; Function Attrs: null_pointer_is_valid sspstrong uwtable
define internal zeroext i16 @de_esm_pkmf_address(ptr noundef %0, ptr noundef %1, ptr noundef %2, i32 noundef %3, i32 noundef %4, ptr noundef %5, i32 noundef %6) #1 {
  %8 = alloca ptr, align 8
  %9 = alloca ptr, align 8
  %10 = alloca ptr, align 8
  %11 = alloca i32, align 4
  %12 = alloca i32, align 4
  %13 = alloca ptr, align 8
  %14 = alloca i32, align 4
  %15 = alloca i32, align 4
  %16 = alloca i32, align 4
  store ptr %0, ptr %8, align 8
  store ptr %1, ptr %9, align 8
  store ptr %2, ptr %10, align 8
  store i32 %3, ptr %11, align 4
  store i32 %4, ptr %12, align 4
  store ptr %5, ptr %13, align 8
  store i32 %6, ptr %14, align 4
  call void @llvm.lifetime.start.p0(i64 4, ptr %15) #10
  %17 = load i32, ptr %11, align 4
  store i32 %17, ptr %15, align 4
  call void @llvm.lifetime.start.p0(i64 4, ptr %16) #10
  %18 = load ptr, ptr %9, align 8
  %19 = load i32, ptr @hf_nas_eps_spare_bits, align 4
  %20 = load ptr, ptr %8, align 8
  %21 = load i32, ptr %15, align 4
  %22 = shl i32 %21, 3
  %23 = call ptr @proto_tree_add_bits_item(ptr noundef %18, i32 noundef %19, ptr noundef %20, i32 noundef %22, i32 noundef 5, i32 noundef 0)
  %24 = load ptr, ptr %9, align 8
  %25 = load i32, ptr @hf_nas_eps_esm_pkmf_address_type, align 4
  %26 = load ptr, ptr %8, align 8
  %27 = load i32, ptr %15, align 4
  %28 = call ptr @proto_tree_add_item_ret_uint(ptr noundef %24, i32 noundef %25, ptr noundef %26, i32 noundef %27, i32 noundef 1, i32 noundef 0, ptr noundef %16)
  %29 = load i32, ptr %15, align 4
  %30 = add i32 %29, 1
  store i32 %30, ptr %15, align 4
  %31 = load i32, ptr %16, align 4
  switch i32 %31, label %44 [
    i32 1, label %32
    i32 2, label %38
  ]

32:                                               ; preds = %7
  %33 = load ptr, ptr %9, align 8
  %34 = load i32, ptr @hf_nas_eps_esm_pkmf_ipv4, align 4
  %35 = load ptr, ptr %8, align 8
  %36 = load i32, ptr %15, align 4
  %37 = call ptr @proto_tree_add_item(ptr noundef %33, i32 noundef %34, ptr noundef %35, i32 noundef %36, i32 noundef 4, i32 noundef 0)
  br label %45

38:                                               ; preds = %7
  %39 = load ptr, ptr %9, align 8
  %40 = load i32, ptr @hf_nas_eps_esm_pkmf_ipv6, align 4
  %41 = load ptr, ptr %8, align 8
  %42 = load i32, ptr %15, align 4
  %43 = call ptr @proto_tree_add_item(ptr noundef %39, i32 noundef %40, ptr noundef %41, i32 noundef %42, i32 noundef 16, i32 noundef 0)
  br label %45

44:                                               ; preds = %7
  br label %45

45:                                               ; preds = %44, %38, %32
  %46 = load i32, ptr %12, align 4
  %47 = trunc i32 %46 to i16
  call void @llvm.lifetime.end.p0(i64 4, ptr %16) #10
  call void @llvm.lifetime.end.p0(i64 4, ptr %15) #10
  ret i16 %47
}