; Function Attrs: null_pointer_is_valid sspstrong uwtable
define internal noundef zeroext i16 @de_esm_pkmf_address(ptr noundef %0, ptr noundef %1, ptr readnone captures(none) %2, i32 noundef %3, i32 noundef %4, ptr readnone captures(none) %5, i32 %6) #1 {
  %8 = alloca i32, align 4
  call void @llvm.lifetime.start.p0(i64 4, ptr nonnull %8) #10
  %9 = load i32, ptr @hf_nas_eps_spare_bits, align 4
  %10 = shl i32 %3, 3
  %11 = tail call ptr @proto_tree_add_bits_item(ptr noundef %1, i32 noundef %9, ptr noundef %0, i32 noundef %10, i32 noundef 5, i32 noundef 0)
  %12 = load i32, ptr @hf_nas_eps_esm_pkmf_address_type, align 4
  %13 = call ptr @proto_tree_add_item_ret_uint(ptr noundef %1, i32 noundef %12, ptr noundef %0, i32 noundef %3, i32 noundef 1, i32 noundef 0, ptr noundef nonnull %8)
  %14 = add i32 %3, 1
  %15 = load i32, ptr %8, align 4
  switch i32 %15, label %19 [
    i32 1, label %.sink.split
    i32 2, label %16
  ]

16:                                               ; preds = %7
  br label %.sink.split

.sink.split:                                      ; preds = %7, %16
  %hf_nas_eps_esm_pkmf_ipv6.sink = phi ptr [ @hf_nas_eps_esm_pkmf_ipv6, %16 ], [ @hf_nas_eps_esm_pkmf_ipv4, %7 ]
  %.sink14 = phi i32 [ 16, %16 ], [ 4, %7 ]
  %17 = load i32, ptr %hf_nas_eps_esm_pkmf_ipv6.sink, align 4
  %18 = call ptr @proto_tree_add_item(ptr noundef %1, i32 noundef %17, ptr noundef %0, i32 noundef %14, i32 noundef %.sink14, i32 noundef 0)
  br label %19

19:                                               ; preds = %.sink.split, %7
  %20 = trunc i32 %4 to i16
  call void @llvm.lifetime.end.p0(i64 4, ptr nonnull %8) #10
  ret i16 %20
}